target datalayout = "e-m:e-p270:32:32-p271:32:32-p272:64:64-i64:64-i128:128-f80:128-n8:16:32:64-S128"
target triple = "x86_64-pc-linux-gnu"

@.str.1 = private unnamed_addr constant [11 x i8] c"miscinit.c\00", align 1
@.str.39 = private unnamed_addr constant [15 x i8] c"postmaster.pid\00", align 1
@.str.42 = private unnamed_addr constant [29 x i8] c"could not open file \22%s\22: %m\00", align 1
@__func__.AddToDataDirLockFile = private unnamed_addr constant [21 x i8] c"AddToDataDirLockFile\00", align 1
@.str.43 = private unnamed_addr constant [34 x i8] c"could not read from file \22%s\22: %m\00", align 1
@.str.44 = private unnamed_addr constant [4 x i8] c"%s\0A\00", align 1
@.str.45 = private unnamed_addr constant [3 x i8] c"%s\00", align 1
@.str.46 = private unnamed_addr constant [33 x i8] c"could not write to file \22%s\22: %m\00", align 1
@my_wait_event_info = external global ptr, align 8

; Function Attrs: inlinehint nounwind uwtable
define internal void @pgstat_report_wait_end() #6 {
  %1 = load ptr, ptr @my_wait_event_info, align 8
  store volatile i32 0, ptr %1, align 4
  ret void
}

; Function Attrs: inlinehint nounwind uwtable
define internal void @pgstat_report_wait_start(i32 noundef %0) #6 {
  %2 = alloca i32, align 4
  store i32 %0, ptr %2, align 4
  %3 = load i32, ptr %2, align 4
  %4 = load ptr, ptr @my_wait_event_info, align 8
  store volatile i32 %3, ptr %4, align 4
  ret void
}

; Function Attrs: nounwind uwtable
define dso_local void @AddToDataDirLockFile(i32 noundef %0, ptr noundef %1) #0 {
  %3 = alloca i32, align 4
  %4 = alloca ptr, align 8
  %5 = alloca i32, align 4
  %6 = alloca i32, align 4
  %7 = alloca i32, align 4
  %8 = alloca ptr, align 8
  %9 = alloca ptr, align 8
  %10 = alloca [8192 x i8], align 16
  %11 = alloca [8192 x i8], align 16
  %12 = alloca i32, align 4
  %13 = alloca ptr, align 8
  store i32 %0, ptr %3, align 4
  store ptr %1, ptr %4, align 8
  call void @llvm.lifetime.start.p0(i64 4, ptr %5) #12
  call void @llvm.lifetime.start.p0(i64 4, ptr %6) #12
  call void @llvm.lifetime.start.p0(i64 4, ptr %7) #12
  call void @llvm.lifetime.start.p0(i64 8, ptr %8) #12
  call void @llvm.lifetime.start.p0(i64 8, ptr %9) #12
  call void @llvm.lifetime.start.p0(i64 8192, ptr %10) #12
  call void @llvm.lifetime.start.p0(i64 8192, ptr %11) #12
  %14 = call i32 (ptr, i32, ...) @open(ptr noundef @.str.39, i32 noundef 2, i32 noundef 0)
  store i32 %14, ptr %5, align 4
  %15 = load i32, ptr %5, align 4
  %16 = icmp slt i32 %15, 0
  br i1 %16, label %17, label %29

17:                                               ; preds = %2
  br label %18

18:                                               ; preds = %17
  br i1 false, label %19, label %21

19:                                               ; preds = %18
  %20 = call zeroext i1 @errstart_cold(i32 noundef 15, ptr noundef null) #13
  br i1 %20, label %23, label %26

21:                                               ; preds = %18
  %22 = call zeroext i1 @errstart(i32 noundef 15, ptr noundef null)
  br i1 %22, label %23, label %26

23:                                               ; preds = %21, %19
  %24 = call i32 @errcode_for_file_access()
  %25 = call i32 (ptr, ...) @errmsg(ptr noundef @.str.42, ptr noundef @.str.39)
  call void @errfinish(ptr noundef @.str.1, i32 noundef 1583, ptr noundef @__func__.AddToDataDirLockFile)
  br label %26

26:                                               ; preds = %23, %21, %19
  br label %27

27:                                               ; preds = %26
  br label %28

28:                                               ; preds = %27
  store i32 1, ptr %12, align 4
  br label %200

29:                                               ; preds = %2
  call void @pgstat_report_wait_start(i32 noundef 167772183)
  %30 = load i32, ptr %5, align 4
  %31 = getelementptr inbounds [8192 x i8], ptr %10, i64 0, i64 0
  %32 = call i64 @read(i32 noundef %30, ptr noundef %31, i64 noundef 8191)
  %33 = trunc i64 %32 to i32
  store i32 %33, ptr %6, align 4
  call void @pgstat_report_wait_end()
  %34 = load i32, ptr %6, align 4
  %35 = icmp slt i32 %34, 0
  br i1 %35, label %36, label %50

36:                                               ; preds = %29
  br label %37

37:                                               ; preds = %36
  br i1 false, label %38, label %40

38:                                               ; preds = %37
  %39 = call zeroext i1 @errstart_cold(i32 noundef 15, ptr noundef null) #13
  br i1 %39, label %42, label %45

40:                                               ; preds = %37
  %41 = call zeroext i1 @errstart(i32 noundef 15, ptr noundef null)
  br i1 %41, label %42, label %45

42:                                               ; preds = %40, %38
  %43 = call i32 @errcode_for_file_access()
  %44 = call i32 (ptr, ...) @errmsg(ptr noundef @.str.43, ptr noundef @.str.39)
  call void @errfinish(ptr noundef @.str.1, i32 noundef 1594, ptr noundef @__func__.AddToDataDirLockFile)
  br label %45

45:                                               ; preds = %42, %40, %38
  br label %46

46:                                               ; preds = %45
  br label %47

47:                                               ; preds = %46
  %48 = load i32, ptr %5, align 4
  %49 = call i32 @close(i32 noundef %48)
  store i32 1, ptr %12, align 4
  br label %200

50:                                               ; preds = %29
  %51 = load i32, ptr %6, align 4
  %52 = sext i32 %51 to i64
  %53 = getelementptr inbounds [8192 x i8], ptr %10, i64 0, i64 %52
  store i8 0, ptr %53, align 1
  %54 = getelementptr inbounds [8192 x i8], ptr %10, i64 0, i64 0
  store ptr %54, ptr %8, align 8
  store i32 1, ptr %7, align 4
  br label %55

55:                                               ; preds = %71, %50
  %56 = load i32, ptr %7, align 4
  %57 = load i32, ptr %3, align 4
  %58 = icmp slt i32 %56, %57
  br i1 %58, label %59, label %74

59:                                               ; preds = %55
  call void @llvm.lifetime.start.p0(i64 8, ptr %13) #12
  %60 = load ptr, ptr %8, align 8
  %61 = call ptr @strchr(ptr noundef %60, i32 noundef 10) #15
  store ptr %61, ptr %13, align 8
  %62 = load ptr, ptr %13, align 8
  %63 = icmp eq ptr %62, null
  br i1 %63, label %64, label %65

64:                                               ; preds = %59
  store i32 6, ptr %12, align 4
  br label %68

65:                                               ; preds = %59
  %66 = load ptr, ptr %13, align 8
  %67 = getelementptr inbounds i8, ptr %66, i64 1
  store ptr %67, ptr %8, align 8
  store i32 0, ptr %12, align 4
  br label %68

68:                                               ; preds = %65, %64
  call void @llvm.lifetime.end.p0(i64 8, ptr %13) #12
  %69 = load i32, ptr %12, align 4
  switch i32 %69, label %203 [
    i32 0, label %70
    i32 6, label %74
  ]

70:                                               ; preds = %68
  br label %71

71:                                               ; preds = %70
  %72 = load i32, ptr %7, align 4
  %73 = add i32 %72, 1
  store i32 %73, ptr %7, align 4
  br label %55, !llvm.loop !9

74:                                               ; preds = %68, %55
  %75 = getelementptr inbounds [8192 x i8], ptr %11, i64 0, i64 0
  %76 = getelementptr inbounds [8192 x i8], ptr %10, i64 0, i64 0
  %77 = load ptr, ptr %8, align 8
  %78 = getelementptr inbounds [8192 x i8], ptr %10, i64 0, i64 0
  %79 = ptrtoint ptr %77 to i64
  %80 = ptrtoint ptr %78 to i64
  %81 = sub i64 %79, %80
  call void @llvm.memcpy.p0.p0.i64(ptr align 16 %75, ptr align 16 %76, i64 %81, i1 false)
  %82 = getelementptr inbounds [8192 x i8], ptr %11, i64 0, i64 0
  %83 = load ptr, ptr %8, align 8
  %84 = getelementptr inbounds [8192 x i8], ptr %10, i64 0, i64 0
  %85 = ptrtoint ptr %83 to i64
  %86 = ptrtoint ptr %84 to i64
  %87 = sub i64 %85, %86
  %88 = getelementptr inbounds i8, ptr %82, i64 %87
  store ptr %88, ptr %9, align 8
  br label %89

89:                                               ; preds = %102, %74
  %90 = load i32, ptr %7, align 4
  %91 = load i32, ptr %3, align 4
  %92 = icmp slt i32 %90, %91
  br i1 %92, label %93, label %105

93:                                               ; preds = %89
  %94 = load ptr, ptr %9, align 8
  %95 = getelementptr inbounds [8192 x i8], ptr %11, i64 0, i64 0
  %96 = getelementptr inbounds nuw i8, ptr %95, i64 8192
  %97 = icmp ult ptr %94, %96
  br i1 %97, label %98, label %101

98:                                               ; preds = %93
  %99 = load ptr, ptr %9, align 8
  %100 = getelementptr inbounds nuw i8, ptr %99, i32 1
  store ptr %100, ptr %9, align 8
  store i8 10, ptr %99, align 1
  br label %101

101:                                              ; preds = %98, %93
  br label %102

102:                                              ; preds = %101
  %103 = load i32, ptr %7, align 4
  %104 = add i32 %103, 1
  store i32 %104, ptr %7, align 4
  br label %89, !llvm.loop !10

105:                                              ; preds = %89
  %106 = load ptr, ptr %9, align 8
  %107 = getelementptr inbounds [8192 x i8], ptr %11, i64 0, i64 0
  %108 = getelementptr inbounds nuw i8, ptr %107, i64 8192
  %109 = load ptr, ptr %9, align 8
  %110 = ptrtoint ptr %108 to i64
  %111 = ptrtoint ptr %109 to i64
  %112 = sub i64 %110, %111
  %113 = load ptr, ptr %4, align 8
  %114 = call i32 (ptr, i64, ptr, ...) @pg_snprintf(ptr noundef %106, i64 noundef %112, ptr noundef @.str.44, ptr noundef %113)
  %115 = load ptr, ptr %9, align 8
  %116 = call i64 @strlen(ptr noundef %115) #15
  %117 = load ptr, ptr %9, align 8
  %118 = getelementptr inbounds nuw i8, ptr %117, i64 %116
  store ptr %118, ptr %9, align 8
  %119 = load ptr, ptr %8, align 8
  %120 = call ptr @strchr(ptr noundef %119, i32 noundef 10) #15
  store ptr %120, ptr %8, align 8
  %121 = icmp ne ptr %120, null
  br i1 %121, label %122, label %134

122:                                              ; preds = %105
  %123 = load ptr, ptr %8, align 8
  %124 = getelementptr inbounds nuw i8, ptr %123, i32 1
  store ptr %124, ptr %8, align 8
  %125 = load ptr, ptr %9, align 8
  %126 = getelementptr inbounds [8192 x i8], ptr %11, i64 0, i64 0
  %127 = getelementptr inbounds nuw i8, ptr %126, i64 8192
  %128 = load ptr, ptr %9, align 8
  %129 = ptrtoint ptr %127 to i64
  %130 = ptrtoint ptr %128 to i64
  %131 = sub i64 %129, %130
  %132 = load ptr, ptr %8, align 8
  %133 = call i32 (ptr, i64, ptr, ...) @pg_snprintf(ptr noundef %125, i64 noundef %131, ptr noundef @.str.45, ptr noundef %132)
  br label %134

134:                                              ; preds = %122, %105
  %135 = getelementptr inbounds [8192 x i8], ptr %11, i64 0, i64 0
  %136 = call i64 @strlen(ptr noundef %135) #15
  %137 = trunc i64 %136 to i32
  store i32 %137, ptr %6, align 4
  %138 = call ptr @__errno_location() #14
  store i32 0, ptr %138, align 4
  call void @pgstat_report_wait_start(i32 noundef 167772185)
  %139 = load i32, ptr %5, align 4
  %140 = getelementptr inbounds [8192 x i8], ptr %11, i64 0, i64 0
  %141 = load i32, ptr %6, align 4
  %142 = sext i32 %141 to i64
  %143 = call i64 @pwrite(i32 noundef %139, ptr noundef %140, i64 noundef %142, i64 noundef 0)
  %144 = load i32, ptr %6, align 4
  %145 = sext i32 %144 to i64
  %146 = icmp ne i64 %143, %145
  br i1 %146, label %147, label %167

147:                                              ; preds = %134
  call void @pgstat_report_wait_end()
  %148 = call ptr @__errno_location() #14
  %149 = load i32, ptr %148, align 4
  %150 = icmp eq i32 %149, 0
  br i1 %150, label %151, label %153

151:                                              ; preds = %147
  %152 = call ptr @__errno_location() #14
  store i32 28, ptr %152, align 4
  br label %153

153:                                              ; preds = %151, %147
  br label %154

154:                                              ; preds = %153
  br i1 false, label %155, label %157

155:                                              ; preds = %154
  %156 = call zeroext i1 @errstart_cold(i32 noundef 15, ptr noundef null) #13
  br i1 %156, label %159, label %162

157:                                              ; preds = %154
  %158 = call zeroext i1 @errstart(i32 noundef 15, ptr noundef null)
  br i1 %158, label %159, label %162

159:                                              ; preds = %157, %155
  %160 = call i32 @errcode_for_file_access()
  %161 = call i32 (ptr, ...) @errmsg(ptr noundef @.str.46, ptr noundef @.str.39)
  call void @errfinish(ptr noundef @.str.1, i32 noundef 1658, ptr noundef @__func__.AddToDataDirLockFile)
  br label %162

162:                                              ; preds = %159, %157, %155
  br label %163

163:                                              ; preds = %162
  br label %164

164:                                              ; preds = %163
  %165 = load i32, ptr %5, align 4
  %166 = call i32 @close(i32 noundef %165)
  store i32 1, ptr %12, align 4
  br label %200

167:                                              ; preds = %134
  call void @pgstat_report_wait_end()
  call void @pgstat_report_wait_start(i32 noundef 167772184)
  %168 = load i32, ptr %5, align 4
  %169 = call i32 @pg_fsync(i32 noundef %168)
  %170 = icmp ne i32 %169, 0
  br i1 %170, label %171, label %183

171:                                              ; preds = %167
  br label %172

172:                                              ; preds = %171
  br i1 false, label %173, label %175

173:                                              ; preds = %172
  %174 = call zeroext i1 @errstart_cold(i32 noundef 15, ptr noundef null) #13
  br i1 %174, label %177, label %180

175:                                              ; preds = %172
  %176 = call zeroext i1 @errstart(i32 noundef 15, ptr noundef null)
  br i1 %176, label %177, label %180

177:                                              ; preds = %175, %173
  %178 = call i32 @errcode_for_file_access()
  %179 = call i32 (ptr, ...) @errmsg(ptr noundef @.str.46, ptr noundef @.str.39)
  call void @errfinish(ptr noundef @.str.1, i32 noundef 1669, ptr noundef @__func__.AddToDataDirLockFile)
  br label %180

180:                                              ; preds = %177, %175, %173
  br label %181

181:                                              ; preds = %180
  br label %182

182:                                              ; preds = %181
  br label %183

183:                                              ; preds = %182, %167
  call void @pgstat_report_wait_end()
  %184 = load i32, ptr %5, align 4
  %185 = call i32 @close(i32 noundef %184)
  %186 = icmp ne i32 %185, 0
  br i1 %186, label %187, label %199

187:                                              ; preds = %183
  br label %188

188:                                              ; preds = %187
  br i1 false, label %189, label %191

189:                                              ; preds = %188
  %190 = call zeroext i1 @errstart_cold(i32 noundef 15, ptr noundef null) #13
  br i1 %190, label %193, label %196

191:                                              ; preds = %188
  %192 = call zeroext i1 @errstart(i32 noundef 15, ptr noundef null)
  br i1 %192, label %193, label %196

193:                                              ; preds = %191, %189
  %194 = call i32 @errcode_for_file_access()
  %195 = call i32 (ptr, ...) @errmsg(ptr noundef @.str.46, ptr noundef @.str.39)
  call void @errfinish(ptr noundef @.str.1, i32 noundef 1677, ptr noundef @__func__.AddToDataDirLockFile)
  br label %196

196:                                              ; preds = %193, %191, %189
  br label %197

197:                                              ; preds = %196
  br label %198

198:                                              ; preds = %197
  br label %199

199:                                              ; preds = %198, %183
  store i32 0, ptr %12, align 4
  br label %200

200:                                              ; preds = %199, %164, %47, %28
  call void @llvm.lifetime.end.p0(i64 8192, ptr %11) #12
  call void @llvm.lifetime.end.p0(i64 8192, ptr %10) #12
  call void @llvm.lifetime.end.p0(i64 8, ptr %9) #12
  call void @llvm.lifetime.end.p0(i64 8, ptr %8) #12
  call void @llvm.lifetime.end.p0(i64 4, ptr %7) #12
  call void @llvm.lifetime.end.p0(i64 4, ptr %6) #12
  call void @llvm.lifetime.end.p0(i64 4, ptr %5) #12
  %201 = load i32, ptr %12, align 4
  switch i32 %201, label %203 [
    i32 0, label %202
    i32 1, label %202
  ]

202:                                              ; preds = %200, %200
  ret void

203:                                              ; preds = %200, %68
  unreachable
}