; Function Attrs: nounwind uwtable
define dso_local void @AddToDataDirLockFile(i32 noundef %0, ptr noundef %1) local_unnamed_addr #0 {
  %3 = alloca [8192 x i8], align 16
  %4 = alloca [8192 x i8], align 16
  call void @llvm.lifetime.start.p0(i64 8192, ptr nonnull %3) #22
  call void @llvm.lifetime.start.p0(i64 8192, ptr nonnull %4) #22
  %5 = tail call i32 (ptr, i32, ...) @open(ptr noundef nonnull @.str.39, i32 noundef 2, i32 noundef 0) #22
  %6 = icmp slt i32 %5, 0
  br i1 %6, label %7, label %12

7:                                                ; preds = %2
  %8 = tail call zeroext i1 @errstart(i32 noundef 15, ptr noundef null) #22
  br i1 %8, label %9, label %89

9:                                                ; preds = %7
  %10 = tail call i32 @errcode_for_file_access() #22
  %11 = tail call i32 (ptr, ...) @errmsg(ptr noundef nonnull @.str.42, ptr noundef nonnull @.str.39) #22
  tail call void @errfinish(ptr noundef nonnull @.str.1, i32 noundef 1583, ptr noundef nonnull @__func__.AddToDataDirLockFile) #22
  br label %89

12:                                               ; preds = %2
  %13 = load ptr, ptr @my_wait_event_info, align 8
  store volatile i32 167772183, ptr %13, align 4
  %14 = call i64 @read(i32 noundef %5, ptr noundef nonnull %3, i64 noundef 8191) #22
  %15 = load ptr, ptr @my_wait_event_info, align 8
  store volatile i32 0, ptr %15, align 4
  %16 = and i64 %14, 2147483648
  %.not = icmp eq i64 %16, 0
  br i1 %.not, label %24, label %17

17:                                               ; preds = %12
  %18 = tail call zeroext i1 @errstart(i32 noundef 15, ptr noundef null) #22
  br i1 %18, label %19, label %22

19:                                               ; preds = %17
  %20 = tail call i32 @errcode_for_file_access() #22
  %21 = tail call i32 (ptr, ...) @errmsg(ptr noundef nonnull @.str.43, ptr noundef nonnull @.str.39) #22
  tail call void @errfinish(ptr noundef nonnull @.str.1, i32 noundef 1594, ptr noundef nonnull @__func__.AddToDataDirLockFile) #22
  br label %22

22:                                               ; preds = %19, %17
  %23 = tail call i32 @close(i32 noundef %5) #22
  br label %89

24:                                               ; preds = %12
  %25 = and i64 %14, 2147483647
  %26 = getelementptr inbounds nuw [8192 x i8], ptr %3, i64 0, i64 %25
  store i8 0, ptr %26, align 1
  %27 = icmp sgt i32 %0, 1
  br i1 %27, label %.lr.ph, label %._crit_edge

.lr.ph:                                           ; preds = %24, %30
  %.03549 = phi ptr [ %31, %30 ], [ %3, %24 ]
  %.03748 = phi i32 [ %32, %30 ], [ 1, %24 ]
  %28 = call ptr @strchr(ptr noundef nonnull dereferenceable(1) %.03549, i32 noundef 10) #25
  %29 = icmp eq ptr %28, null
  br i1 %29, label %._crit_edge, label %30

30:                                               ; preds = %.lr.ph
  %31 = getelementptr inbounds nuw i8, ptr %28, i64 1
  %32 = add nuw nsw i32 %.03748, 1
  %exitcond.not = icmp eq i32 %32, %0
  br i1 %exitcond.not, label %._crit_edge.thread, label %.lr.ph, !llvm.loop !8

._crit_edge.thread:                               ; preds = %30
  %33 = ptrtoint ptr %31 to i64
  %34 = ptrtoint ptr %3 to i64
  %35 = sub i64 %33, %34
  call void @llvm.memcpy.p0.p0.i64(ptr nonnull align 16 %4, ptr nonnull align 16 %3, i64 %35, i1 false)
  %.034.ptr5467 = getelementptr inbounds i8, ptr %4, i64 %35
  br label %._crit_edge60

._crit_edge:                                      ; preds = %.lr.ph, %24
  %.037.lcssa = phi i32 [ 1, %24 ], [ %.03748, %.lr.ph ]
  %.035.lcssa = phi ptr [ %3, %24 ], [ %.03549, %.lr.ph ]
  %36 = ptrtoint ptr %.035.lcssa to i64
  %37 = ptrtoint ptr %3 to i64
  %38 = sub i64 %36, %37
  call void @llvm.memcpy.p0.p0.i64(ptr nonnull align 16 %4, ptr nonnull align 16 %3, i64 %38, i1 false)
  %.034.ptr54 = getelementptr inbounds i8, ptr %4, i64 %38
  %39 = icmp slt i32 %.037.lcssa, %0
  br i1 %39, label %.lr.ph59, label %._crit_edge60

.lr.ph59:                                         ; preds = %._crit_edge, %42
  %.034.ptr57 = phi ptr [ %.034.ptr, %42 ], [ %.034.ptr54, %._crit_edge ]
  %.034.idx56 = phi i64 [ %.1.idx, %42 ], [ %38, %._crit_edge ]
  %.13855 = phi i32 [ %43, %42 ], [ %.037.lcssa, %._crit_edge ]
  %40 = icmp slt i64 %.034.idx56, 8192
  br i1 %40, label %41, label %42

41:                                               ; preds = %.lr.ph59
  %.034.add = add nsw i64 %.034.idx56, 1
  store i8 10, ptr %.034.ptr57, align 1
  br label %42

42:                                               ; preds = %.lr.ph59, %41
  %.1.idx = phi i64 [ %.034.add, %41 ], [ %.034.idx56, %.lr.ph59 ]
  %43 = add nuw nsw i32 %.13855, 1
  %.034.ptr = getelementptr inbounds i8, ptr %4, i64 %.1.idx
  %exitcond64.not = icmp eq i32 %43, %0
  br i1 %exitcond64.not, label %._crit_edge60, label %.lr.ph59, !llvm.loop !9

._crit_edge60:                                    ; preds = %42, %._crit_edge.thread, %._crit_edge
  %.035.lcssa68 = phi ptr [ %.035.lcssa, %._crit_edge ], [ %31, %._crit_edge.thread ], [ %.035.lcssa, %42 ]
  %.034.idx.lcssa = phi i64 [ %38, %._crit_edge ], [ %35, %._crit_edge.thread ], [ %.1.idx, %42 ]
  %.034.ptr.lcssa = phi ptr [ %.034.ptr54, %._crit_edge ], [ %.034.ptr5467, %._crit_edge.thread ], [ %.034.ptr, %42 ]
  %gepdiff = sub nsw i64 8192, %.034.idx.lcssa
  %44 = call i32 (ptr, i64, ptr, ...) @pg_snprintf(ptr noundef nonnull %.034.ptr.lcssa, i64 noundef %gepdiff, ptr noundef nonnull @.str.44, ptr noundef %1) #22
  %45 = call ptr @strchr(ptr noundef nonnull dereferenceable(1) %.035.lcssa68, i32 noundef 10) #25
  %.not43 = icmp eq ptr %45, null
  br i1 %.not43, label %55, label %46

46:                                               ; preds = %._crit_edge60
  %47 = getelementptr inbounds nuw i8, ptr %4, i64 8192
  %48 = ptrtoint ptr %47 to i64
  %49 = call i64 @strlen(ptr noundef nonnull dereferenceable(1) %.034.ptr.lcssa) #25
  %50 = getelementptr inbounds nuw i8, ptr %.034.ptr.lcssa, i64 %49
  %51 = getelementptr inbounds nuw i8, ptr %45, i64 1
  %52 = ptrtoint ptr %50 to i64
  %53 = sub i64 %48, %52
  %54 = call i32 (ptr, i64, ptr, ...) @pg_snprintf(ptr noundef nonnull %50, i64 noundef %53, ptr noundef nonnull @.str.45, ptr noundef nonnull %51) #22
  br label %55

55:                                               ; preds = %46, %._crit_edge60
  %56 = call i64 @strlen(ptr noundef nonnull dereferenceable(1) %4) #25
  %57 = tail call ptr @__errno_location() #24
  store i32 0, ptr %57, align 4
  %58 = load ptr, ptr @my_wait_event_info, align 8
  store volatile i32 167772185, ptr %58, align 4
  %sext = shl i64 %56, 32
  %59 = ashr exact i64 %sext, 32
  %60 = call i64 @pwrite(i32 noundef %5, ptr noundef nonnull %4, i64 noundef %59, i64 noundef 0) #22
  %.not44 = icmp eq i64 %60, %59
  %61 = load ptr, ptr @my_wait_event_info, align 8
  store volatile i32 0, ptr %61, align 4
  br i1 %.not44, label %73, label %62

62:                                               ; preds = %55
  %63 = load i32, ptr %57, align 4
  %64 = icmp eq i32 %63, 0
  br i1 %64, label %65, label %66

65:                                               ; preds = %62
  store i32 28, ptr %57, align 4
  br label %66

66:                                               ; preds = %65, %62
  %67 = call zeroext i1 @errstart(i32 noundef 15, ptr noundef null) #22
  br i1 %67, label %68, label %71

68:                                               ; preds = %66
  %69 = call i32 @errcode_for_file_access() #22
  %70 = call i32 (ptr, ...) @errmsg(ptr noundef nonnull @.str.46, ptr noundef nonnull @.str.39) #22
  call void @errfinish(ptr noundef nonnull @.str.1, i32 noundef 1658, ptr noundef nonnull @__func__.AddToDataDirLockFile) #22
  br label %71

71:                                               ; preds = %68, %66
  %72 = call i32 @close(i32 noundef %5) #22
  br label %89

73:                                               ; preds = %55
  %74 = load ptr, ptr @my_wait_event_info, align 8
  store volatile i32 167772184, ptr %74, align 4
  %75 = call i32 @pg_fsync(i32 noundef %5) #22
  %.not45 = icmp eq i32 %75, 0
  br i1 %.not45, label %81, label %76

76:                                               ; preds = %73
  %77 = call zeroext i1 @errstart(i32 noundef 15, ptr noundef null) #22
  br i1 %77, label %78, label %81

78:                                               ; preds = %76
  %79 = call i32 @errcode_for_file_access() #22
  %80 = call i32 (ptr, ...) @errmsg(ptr noundef nonnull @.str.46, ptr noundef nonnull @.str.39) #22
  call void @errfinish(ptr noundef nonnull @.str.1, i32 noundef 1669, ptr noundef nonnull @__func__.AddToDataDirLockFile) #22
  br label %81

81:                                               ; preds = %76, %78, %73
  %82 = load ptr, ptr @my_wait_event_info, align 8
  store volatile i32 0, ptr %82, align 4
  %83 = call i32 @close(i32 noundef %5) #22
  %.not46 = icmp eq i32 %83, 0
  br i1 %.not46, label %89, label %84

84:                                               ; preds = %81
  %85 = call zeroext i1 @errstart(i32 noundef 15, ptr noundef null) #22
  br i1 %85, label %86, label %89

86:                                               ; preds = %84
  %87 = call i32 @errcode_for_file_access() #22
  %88 = call i32 (ptr, ...) @errmsg(ptr noundef nonnull @.str.46, ptr noundef nonnull @.str.39) #22
  call void @errfinish(ptr noundef nonnull @.str.1, i32 noundef 1677, ptr noundef nonnull @__func__.AddToDataDirLockFile) #22
  br label %89

89:                                               ; preds = %81, %86, %84, %7, %9, %71, %22
  call void @llvm.lifetime.end.p0(i64 8192, ptr nonnull %4) #22
  call void @llvm.lifetime.end.p0(i64 8192, ptr nonnull %3) #22
  ret void
}